; ModuleID = '50/1599.c'
source_filename = "50/1599.c"
target datalayout = "e-m:e-p270:32:32-p271:32:32-p272:64:64-i64:64-f80:128-n8:16:32:64-S128"
target triple = "x86_64-pc-linux-gnu"

@.str = private unnamed_addr constant [3 x i8] c"%d\00", align 1
@.str.1 = private unnamed_addr constant [4 x i8] c"%d\0A\00", align 1

; Function Attrs: noinline nounwind uwtable
define dso_local i32 @day(i32 %0) #0 {
  %2 = alloca i32, align 4
  %3 = alloca i32, align 4
  %4 = alloca i32, align 4
  store i32 %0, i32* %2, align 4
  store i32 0, i32* %3, align 4
  store i32 1, i32* %4, align 4
  br label %5

5:                                                ; preds = %57, %1
  %6 = load i32, i32* %4, align 4
  %7 = load i32, i32* %2, align 4
  %8 = icmp slt i32 %6, %7
  br i1 %8, label %9, label %60

9:                                                ; preds = %5
  %10 = load i32, i32* %4, align 4
  %11 = icmp eq i32 %10, 1
  br i1 %11, label %30, label %12

12:                                               ; preds = %9
  %13 = load i32, i32* %4, align 4
  %14 = icmp eq i32 %13, 3
  br i1 %14, label %30, label %15

15:                                               ; preds = %12
  %16 = load i32, i32* %4, align 4
  %17 = icmp eq i32 %16, 5
  br i1 %17, label %30, label %18

18:                                               ; preds = %15
  %19 = load i32, i32* %4, align 4
  %20 = icmp eq i32 %19, 7
  br i1 %20, label %30, label %21

21:                                               ; preds = %18
  %22 = load i32, i32* %4, align 4
  %23 = icmp eq i32 %22, 8
  br i1 %23, label %30, label %24

24:                                               ; preds = %21
  %25 = load i32, i32* %4, align 4
  %26 = icmp eq i32 %25, 10
  br i1 %26, label %30, label %27

27:                                               ; preds = %24
  %28 = load i32, i32* %4, align 4
  %29 = icmp eq i32 %28, 12
  br i1 %29, label %30, label %33

30:                                               ; preds = %27, %24, %21, %18, %15, %12, %9
  %31 = load i32, i32* %3, align 4
  %32 = add nsw i32 %31, 31
  store i32 %32, i32* %3, align 4
  br label %56

33:                                               ; preds = %27
  %34 = load i32, i32* %4, align 4
  %35 = icmp eq i32 %34, 4
  br i1 %35, label %45, label %36

36:                                               ; preds = %33
  %37 = load i32, i32* %4, align 4
  %38 = icmp eq i32 %37, 6
  br i1 %38, label %45, label %39

39:                                               ; preds = %36
  %40 = load i32, i32* %4, align 4
  %41 = icmp eq i32 %40, 9
  br i1 %41, label %45, label %42

42:                                               ; preds = %39
  %43 = load i32, i32* %4, align 4
  %44 = icmp eq i32 %43, 11
  br i1 %44, label %45, label %48

45:                                               ; preds = %42, %39, %36, %33
  %46 = load i32, i32* %3, align 4
  %47 = add nsw i32 %46, 30
  store i32 %47, i32* %3, align 4
  br label %55

48:                                               ; preds = %42
  %49 = load i32, i32* %4, align 4
  %50 = icmp eq i32 %49, 2
  br i1 %50, label %51, label %54

51:                                               ; preds = %48
  %52 = load i32, i32* %3, align 4
  %53 = add nsw i32 %52, 28
  store i32 %53, i32* %3, align 4
  br label %54

54:                                               ; preds = %51, %48
  br label %55

55:                                               ; preds = %54, %45
  br label %56

56:                                               ; preds = %55, %30
  br label %57

57:                                               ; preds = %56
  %58 = load i32, i32* %4, align 4
  %59 = add nsw i32 %58, 1
  store i32 %59, i32* %4, align 4
  br label %5

60:                                               ; preds = %5
  %61 = load i32, i32* %3, align 4
  ret i32 %61
}

; Function Attrs: noinline nounwind uwtable
define dso_local i32 @main() #0 {
  %1 = alloca i32, align 4
  %2 = alloca i32, align 4
  %3 = alloca i32, align 4
  %4 = alloca i32, align 4
  %5 = alloca i32, align 4
  store i32 0, i32* %1, align 4
  %6 = call i32 (i8*, ...) @__isoc99_scanf(i8* getelementptr inbounds ([3 x i8], [3 x i8]* @.str, i64 0, i64 0), i32* %2)
  store i32 1, i32* %3, align 4
  br label %7

7:                                                ; preds = %31, %0
  %8 = load i32, i32* %3, align 4
  %9 = icmp sle i32 %8, 12
  br i1 %9, label %10, label %34

10:                                               ; preds = %7
  store i32 0, i32* %4, align 4
  %11 = load i32, i32* %3, align 4
  %12 = call i32 @day(i32 %11)
  %13 = add nsw i32 13, %12
  store i32 %13, i32* %4, align 4
  %14 = load i32, i32* %4, align 4
  %15 = srem i32 %14, 7
  %16 = load i32, i32* %2, align 4
  %17 = add nsw i32 %15, %16
  %18 = sub nsw i32 %17, 1
  store i32 %18, i32* %5, align 4
  %19 = load i32, i32* %5, align 4
  %20 = icmp sgt i32 %19, 7
  br i1 %20, label %21, label %24

21:                                               ; preds = %10
  %22 = load i32, i32* %5, align 4
  %23 = sub nsw i32 %22, 7
  store i32 %23, i32* %5, align 4
  br label %24

24:                                               ; preds = %21, %10
  %25 = load i32, i32* %5, align 4
  %26 = icmp eq i32 %25, 5
  br i1 %26, label %27, label %30

27:                                               ; preds = %24
  %28 = load i32, i32* %3, align 4
  %29 = call i32 (i8*, ...) @printf(i8* getelementptr inbounds ([4 x i8], [4 x i8]* @.str.1, i64 0, i64 0), i32 %28)
  br label %30

30:                                               ; preds = %27, %24
  br label %31

31:                                               ; preds = %30
  %32 = load i32, i32* %3, align 4
  %33 = add nsw i32 %32, 1
  store i32 %33, i32* %3, align 4
  br label %7

34:                                               ; preds = %7
  ret i32 0
}

declare dso_local i32 @__isoc99_scanf(i8*, ...) #1

declare dso_local i32 @printf(i8*, ...) #1


!llvm.module.flags = !{!0}
!llvm.ident = !{!1}

!0 = !{i32 1, !"wchar_size", i32 4}
!1 = !{!"clang version 10.0.0-4ubuntu1 "}
