; ModuleID = 'source-C-CXX/49/1599.c'
source_filename = "source-C-CXX/49/1599.c"
target datalayout = "e-m:e-p270:32:32-p271:32:32-p272:64:64-i64:64-f80:128-n8:16:32:64-S128"
target triple = "x86_64-pc-linux-gnu"

@.str = private unnamed_addr constant [3 x i8] c"%d\00", align 1
@.str.1 = private unnamed_addr constant [4 x i8] c"%d\0A\00", align 1

; Function Attrs: nofree norecurse nosync nounwind readnone sspstrong uwtable
define dso_local i32 @day(i32 %0) local_unnamed_addr #0 {
  %2 = icmp sgt i32 %0, 1
  br i1 %2, label %3, label %26

3:                                                ; preds = %1, %22
  %4 = phi i32 [ %24, %22 ], [ 1, %1 ]
  %5 = phi i32 [ %23, %22 ], [ 0, %1 ]
  %6 = and i32 %4, 2147483641
  %7 = icmp eq i32 %6, 1
  %8 = and i32 %4, 2147483645
  %9 = icmp eq i32 %8, 8
  %10 = or i1 %9, %7
  %11 = icmp eq i32 %4, 12
  %12 = select i1 %10, i1 true, i1 %11
  br i1 %12, label %13, label %15

13:                                               ; preds = %3
  %14 = add nsw i32 %5, 31
  br label %22

15:                                               ; preds = %3
  switch i32 %8, label %18 [
    i32 9, label %16
    i32 4, label %16
  ]

16:                                               ; preds = %15, %15
  %17 = add nsw i32 %5, 30
  br label %22

18:                                               ; preds = %15
  %19 = icmp eq i32 %4, 2
  %20 = add nsw i32 %5, 28
  %21 = select i1 %19, i32 %20, i32 %5
  br label %22

22:                                               ; preds = %18, %13, %16
  %23 = phi i32 [ %14, %13 ], [ %17, %16 ], [ %21, %18 ]
  %24 = add nuw nsw i32 %4, 1
  %25 = icmp eq i32 %24, %0
  br i1 %25, label %26, label %3, !llvm.loop !5

26:                                               ; preds = %22, %1
  %27 = phi i32 [ 0, %1 ], [ %23, %22 ]
  ret i32 %27
}

; Function Attrs: argmemonly mustprogress nofree nosync nounwind willreturn
declare void @llvm.lifetime.start.p0i8(i64 immarg, i8* nocapture) #1

; Function Attrs: argmemonly mustprogress nofree nosync nounwind willreturn
declare void @llvm.lifetime.end.p0i8(i64 immarg, i8* nocapture) #1

; Function Attrs: nofree nounwind sspstrong uwtable
define dso_local i32 @main() local_unnamed_addr #2 {
  %1 = alloca i32, align 4
  %2 = bitcast i32* %1 to i8*
  call void @llvm.lifetime.start.p0i8(i64 4, i8* nonnull %2) #4
  %3 = call i32 (i8*, ...) @__isoc99_scanf(i8* getelementptr inbounds ([3 x i8], [3 x i8]* @.str, i64 0, i64 0), i32* nonnull %1)
  br label %4

4:                                                ; preds = %0, %40
  %5 = phi i32 [ 1, %0 ], [ %41, %40 ]
  %6 = icmp ugt i32 %5, 1
  br i1 %6, label %7, label %28

7:                                                ; preds = %4, %24
  %8 = phi i32 [ %26, %24 ], [ 1, %4 ]
  %9 = phi i32 [ %25, %24 ], [ 0, %4 ]
  %10 = and i32 %8, 2147483641
  %11 = icmp eq i32 %10, 1
  %12 = and i32 %8, 2147483645
  %13 = icmp eq i32 %12, 8
  %14 = or i1 %13, %11
  br i1 %14, label %15, label %17

15:                                               ; preds = %7
  %16 = add nsw i32 %9, 31
  br label %24

17:                                               ; preds = %7
  switch i32 %12, label %20 [
    i32 9, label %18
    i32 4, label %18
  ]

18:                                               ; preds = %17, %17
  %19 = add nsw i32 %9, 30
  br label %24

20:                                               ; preds = %17
  %21 = icmp eq i32 %8, 2
  %22 = add nsw i32 %9, 28
  %23 = select i1 %21, i32 %22, i32 %9
  br label %24

24:                                               ; preds = %20, %18, %15
  %25 = phi i32 [ %16, %15 ], [ %19, %18 ], [ %23, %20 ]
  %26 = add nuw nsw i32 %8, 1
  %27 = icmp eq i32 %26, %5
  br i1 %27, label %28, label %7, !llvm.loop !5

28:                                               ; preds = %24, %4
  %29 = phi i32 [ 0, %4 ], [ %25, %24 ]
  %30 = add nsw i32 %29, 13
  %31 = srem i32 %30, 7
  %32 = load i32, i32* %1, align 4, !tbaa !7
  %33 = add nsw i32 %31, %32
  %34 = icmp sgt i32 %33, 8
  %35 = select i1 %34, i32 -8, i32 -1
  %36 = add nsw i32 %35, %33
  %37 = icmp eq i32 %36, 5
  br i1 %37, label %38, label %40

38:                                               ; preds = %28
  %39 = call i32 (i8*, ...) @printf(i8* nonnull dereferenceable(1) getelementptr inbounds ([4 x i8], [4 x i8]* @.str.1, i64 0, i64 0), i32 %5)
  br label %40

40:                                               ; preds = %28, %38
  %41 = add nuw nsw i32 %5, 1
  %42 = icmp eq i32 %41, 13
  br i1 %42, label %43, label %4, !llvm.loop !11

43:                                               ; preds = %40
  call void @llvm.lifetime.end.p0i8(i64 4, i8* nonnull %2) #4
  ret i32 0
}

; Function Attrs: nofree nounwind
declare noundef i32 @__isoc99_scanf(i8* nocapture noundef readonly, ...) local_unnamed_addr #3

; Function Attrs: nofree nounwind
declare noundef i32 @printf(i8* nocapture noundef readonly, ...) local_unnamed_addr #3


!llvm.module.flags = !{!0, !1, !2, !3}
!llvm.ident = !{!4}

!0 = !{i32 1, !"wchar_size", i32 4}
!1 = !{i32 7, !"PIC Level", i32 2}
!2 = !{i32 7, !"PIE Level", i32 2}
!3 = !{i32 7, !"uwtable", i32 1}
!4 = !{!"clang version 13.0.0"}
!5 = distinct !{!5, !6}
!6 = !{!"llvm.loop.mustprogress"}
!7 = !{!8, !8, i64 0}
!8 = !{!"int", !9, i64 0}
!9 = !{!"omnipotent char", !10, i64 0}
!10 = !{!"Simple C/C++ TBAA"}
!11 = distinct !{!11, !6}
